; Function Attrs: mustprogress nofree nounwind willreturn memory(argmem: readwrite, inaccessiblemem: readwrite) uwtable
define hidden range(i32 -141, 1) i32 @psa_allocate_buffer_to_slot(ptr noundef captures(none) %0, i64 noundef %1) local_unnamed_addr #3 {
  %3 = getelementptr inbounds nuw i8, ptr %0, i64 40
  %4 = load ptr, ptr %3, align 8, !tbaa !16
  %.not = icmp eq ptr %4, null
  br i1 %.not, label %5, label %10

5:                                                ; preds = %2
  %6 = tail call noalias ptr @calloc(i64 noundef 1, i64 noundef %1) #21
  store ptr %6, ptr %3, align 8, !tbaa !16
  %7 = icmp eq ptr %6, null
  br i1 %7, label %10, label %8

8:                                                ; preds = %5
  %9 = getelementptr inbounds nuw i8, ptr %0, i64 48
  store i64 %1, ptr %9, align 8, !tbaa !23
  br label %10

10:                                               ; preds = %5, %2, %8
  %.0 = phi i32 [ 0, %8 ], [ -139, %2 ], [ -141, %5 ]
  ret i32 %.0
}